target datalayout = "e-m:e-p270:32:32-p271:32:32-p272:64:64-i64:64-i128:128-f80:128-n8:16:32:64-S128"
target triple = "x86_64-pc-linux-gnu"

%struct._lv_fpoint_t = type { float, float }

; Function Attrs: nounwind uwtable
define void @lv_vector_path_append_circle(ptr noundef %0, ptr noundef %1, float noundef %2, float noundef %3) #0 {
  %5 = alloca ptr, align 8
  %6 = alloca ptr, align 8
  %7 = alloca float, align 4
  %8 = alloca float, align 4
  %9 = alloca float, align 4
  %10 = alloca float, align 4
  %11 = alloca float, align 4
  %12 = alloca float, align 4
  %13 = alloca %struct._lv_fpoint_t, align 4
  %14 = alloca %struct._lv_fpoint_t, align 4
  %15 = alloca %struct._lv_fpoint_t, align 4
  store ptr %0, ptr %5, align 8, !tbaa !3
  store ptr %1, ptr %6, align 8, !tbaa !3
  store float %2, ptr %7, align 4, !tbaa !10
  store float %3, ptr %8, align 4, !tbaa !10
  call void @llvm.lifetime.start.p0(i64 4, ptr %9) #7
  %16 = load float, ptr %7, align 4, !tbaa !10
  %17 = fmul float %16, 0x3FE1AC4F80000000
  store float %17, ptr %9, align 4, !tbaa !10
  call void @llvm.lifetime.start.p0(i64 4, ptr %10) #7
  %18 = load float, ptr %8, align 4, !tbaa !10
  %19 = fmul float %18, 0x3FE1AC4F80000000
  store float %19, ptr %10, align 4, !tbaa !10
  call void @llvm.lifetime.start.p0(i64 4, ptr %11) #7
  %20 = load ptr, ptr %6, align 8, !tbaa !3
  %21 = getelementptr inbounds nuw %struct._lv_fpoint_t, ptr %20, i32 0, i32 0
  %22 = load float, ptr %21, align 4, !tbaa !7
  store float %22, ptr %11, align 4, !tbaa !10
  call void @llvm.lifetime.start.p0(i64 4, ptr %12) #7
  %23 = load ptr, ptr %6, align 8, !tbaa !3
  %24 = getelementptr inbounds nuw %struct._lv_fpoint_t, ptr %23, i32 0, i32 1
  %25 = load float, ptr %24, align 4, !tbaa !11
  store float %25, ptr %12, align 4, !tbaa !10
  call void @llvm.lifetime.start.p0(i64 8, ptr %13) #7
  call void @llvm.lifetime.start.p0(i64 8, ptr %14) #7
  call void @llvm.lifetime.start.p0(i64 8, ptr %15) #7
  %26 = load float, ptr %11, align 4, !tbaa !10
  %27 = getelementptr inbounds nuw %struct._lv_fpoint_t, ptr %13, i32 0, i32 0
  store float %26, ptr %27, align 4, !tbaa !7
  %28 = load float, ptr %12, align 4, !tbaa !10
  %29 = load float, ptr %8, align 4, !tbaa !10
  %30 = fsub float %28, %29
  %31 = getelementptr inbounds nuw %struct._lv_fpoint_t, ptr %13, i32 0, i32 1
  store float %30, ptr %31, align 4, !tbaa !11
  %32 = load ptr, ptr %5, align 8, !tbaa !3
  call void @lv_vector_path_move_to(ptr noundef %32, ptr noundef %13)
  %33 = load float, ptr %11, align 4, !tbaa !10
  %34 = load float, ptr %9, align 4, !tbaa !10
  %35 = fadd float %33, %34
  %36 = getelementptr inbounds nuw %struct._lv_fpoint_t, ptr %13, i32 0, i32 0
  store float %35, ptr %36, align 4, !tbaa !7
  %37 = load float, ptr %12, align 4, !tbaa !10
  %38 = load float, ptr %8, align 4, !tbaa !10
  %39 = fsub float %37, %38
  %40 = getelementptr inbounds nuw %struct._lv_fpoint_t, ptr %13, i32 0, i32 1
  store float %39, ptr %40, align 4, !tbaa !11
  %41 = load float, ptr %11, align 4, !tbaa !10
  %42 = load float, ptr %7, align 4, !tbaa !10
  %43 = fadd float %41, %42
  %44 = getelementptr inbounds nuw %struct._lv_fpoint_t, ptr %14, i32 0, i32 0
  store float %43, ptr %44, align 4, !tbaa !7
  %45 = load float, ptr %12, align 4, !tbaa !10
  %46 = load float, ptr %10, align 4, !tbaa !10
  %47 = fsub float %45, %46
  %48 = getelementptr inbounds nuw %struct._lv_fpoint_t, ptr %14, i32 0, i32 1
  store float %47, ptr %48, align 4, !tbaa !11
  %49 = load float, ptr %11, align 4, !tbaa !10
  %50 = load float, ptr %7, align 4, !tbaa !10
  %51 = fadd float %49, %50
  %52 = getelementptr inbounds nuw %struct._lv_fpoint_t, ptr %15, i32 0, i32 0
  store float %51, ptr %52, align 4, !tbaa !7
  %53 = load float, ptr %12, align 4, !tbaa !10
  %54 = getelementptr inbounds nuw %struct._lv_fpoint_t, ptr %15, i32 0, i32 1
  store float %53, ptr %54, align 4, !tbaa !11
  %55 = load ptr, ptr %5, align 8, !tbaa !3
  call void @lv_vector_path_cubic_to(ptr noundef %55, ptr noundef %13, ptr noundef %14, ptr noundef %15)
  %56 = load float, ptr %11, align 4, !tbaa !10
  %57 = load float, ptr %7, align 4, !tbaa !10
  %58 = fadd float %56, %57
  %59 = getelementptr inbounds nuw %struct._lv_fpoint_t, ptr %13, i32 0, i32 0
  store float %58, ptr %59, align 4, !tbaa !7
  %60 = load float, ptr %12, align 4, !tbaa !10
  %61 = load float, ptr %10, align 4, !tbaa !10
  %62 = fadd float %60, %61
  %63 = getelementptr inbounds nuw %struct._lv_fpoint_t, ptr %13, i32 0, i32 1
  store float %62, ptr %63, align 4, !tbaa !11
  %64 = load float, ptr %11, align 4, !tbaa !10
  %65 = load float, ptr %9, align 4, !tbaa !10
  %66 = fadd float %64, %65
  %67 = getelementptr inbounds nuw %struct._lv_fpoint_t, ptr %14, i32 0, i32 0
  store float %66, ptr %67, align 4, !tbaa !7
  %68 = load float, ptr %12, align 4, !tbaa !10
  %69 = load float, ptr %8, align 4, !tbaa !10
  %70 = fadd float %68, %69
  %71 = getelementptr inbounds nuw %struct._lv_fpoint_t, ptr %14, i32 0, i32 1
  store float %70, ptr %71, align 4, !tbaa !11
  %72 = load float, ptr %11, align 4, !tbaa !10
  %73 = getelementptr inbounds nuw %struct._lv_fpoint_t, ptr %15, i32 0, i32 0
  store float %72, ptr %73, align 4, !tbaa !7
  %74 = load float, ptr %12, align 4, !tbaa !10
  %75 = load float, ptr %8, align 4, !tbaa !10
  %76 = fadd float %74, %75
  %77 = getelementptr inbounds nuw %struct._lv_fpoint_t, ptr %15, i32 0, i32 1
  store float %76, ptr %77, align 4, !tbaa !11
  %78 = load ptr, ptr %5, align 8, !tbaa !3
  call void @lv_vector_path_cubic_to(ptr noundef %78, ptr noundef %13, ptr noundef %14, ptr noundef %15)
  %79 = load float, ptr %11, align 4, !tbaa !10
  %80 = load float, ptr %9, align 4, !tbaa !10
  %81 = fsub float %79, %80
  %82 = getelementptr inbounds nuw %struct._lv_fpoint_t, ptr %13, i32 0, i32 0
  store float %81, ptr %82, align 4, !tbaa !7
  %83 = load float, ptr %12, align 4, !tbaa !10
  %84 = load float, ptr %8, align 4, !tbaa !10
  %85 = fadd float %83, %84
  %86 = getelementptr inbounds nuw %struct._lv_fpoint_t, ptr %13, i32 0, i32 1
  store float %85, ptr %86, align 4, !tbaa !11
  %87 = load float, ptr %11, align 4, !tbaa !10
  %88 = load float, ptr %7, align 4, !tbaa !10
  %89 = fsub float %87, %88
  %90 = getelementptr inbounds nuw %struct._lv_fpoint_t, ptr %14, i32 0, i32 0
  store float %89, ptr %90, align 4, !tbaa !7
  %91 = load float, ptr %12, align 4, !tbaa !10
  %92 = load float, ptr %10, align 4, !tbaa !10
  %93 = fadd float %91, %92
  %94 = getelementptr inbounds nuw %struct._lv_fpoint_t, ptr %14, i32 0, i32 1
  store float %93, ptr %94, align 4, !tbaa !11
  %95 = load float, ptr %11, align 4, !tbaa !10
  %96 = load float, ptr %7, align 4, !tbaa !10
  %97 = fsub float %95, %96
  %98 = getelementptr inbounds nuw %struct._lv_fpoint_t, ptr %15, i32 0, i32 0
  store float %97, ptr %98, align 4, !tbaa !7
  %99 = load float, ptr %12, align 4, !tbaa !10
  %100 = getelementptr inbounds nuw %struct._lv_fpoint_t, ptr %15, i32 0, i32 1
  store float %99, ptr %100, align 4, !tbaa !11
  %101 = load ptr, ptr %5, align 8, !tbaa !3
  call void @lv_vector_path_cubic_to(ptr noundef %101, ptr noundef %13, ptr noundef %14, ptr noundef %15)
  %102 = load float, ptr %11, align 4, !tbaa !10
  %103 = load float, ptr %7, align 4, !tbaa !10
  %104 = fsub float %102, %103
  %105 = getelementptr inbounds nuw %struct._lv_fpoint_t, ptr %13, i32 0, i32 0
  store float %104, ptr %105, align 4, !tbaa !7
  %106 = load float, ptr %12, align 4, !tbaa !10
  %107 = load float, ptr %10, align 4, !tbaa !10
  %108 = fsub float %106, %107
  %109 = getelementptr inbounds nuw %struct._lv_fpoint_t, ptr %13, i32 0, i32 1
  store float %108, ptr %109, align 4, !tbaa !11
  %110 = load float, ptr %11, align 4, !tbaa !10
  %111 = load float, ptr %9, align 4, !tbaa !10
  %112 = fsub float %110, %111
  %113 = getelementptr inbounds nuw %struct._lv_fpoint_t, ptr %14, i32 0, i32 0
  store float %112, ptr %113, align 4, !tbaa !7
  %114 = load float, ptr %12, align 4, !tbaa !10
  %115 = load float, ptr %8, align 4, !tbaa !10
  %116 = fsub float %114, %115
  %117 = getelementptr inbounds nuw %struct._lv_fpoint_t, ptr %14, i32 0, i32 1
  store float %116, ptr %117, align 4, !tbaa !11
  %118 = load float, ptr %11, align 4, !tbaa !10
  %119 = getelementptr inbounds nuw %struct._lv_fpoint_t, ptr %15, i32 0, i32 0
  store float %118, ptr %119, align 4, !tbaa !7
  %120 = load float, ptr %12, align 4, !tbaa !10
  %121 = load float, ptr %8, align 4, !tbaa !10
  %122 = fsub float %120, %121
  %123 = getelementptr inbounds nuw %struct._lv_fpoint_t, ptr %15, i32 0, i32 1
  store float %122, ptr %123, align 4, !tbaa !11
  %124 = load ptr, ptr %5, align 8, !tbaa !3
  call void @lv_vector_path_cubic_to(ptr noundef %124, ptr noundef %13, ptr noundef %14, ptr noundef %15)
  %125 = load ptr, ptr %5, align 8, !tbaa !3
  call void @lv_vector_path_close(ptr noundef %125)
  call void @llvm.lifetime.end.p0(i64 8, ptr %15) #7
  call void @llvm.lifetime.end.p0(i64 8, ptr %14) #7
  call void @llvm.lifetime.end.p0(i64 8, ptr %13) #7
  call void @llvm.lifetime.end.p0(i64 4, ptr %12) #7
  call void @llvm.lifetime.end.p0(i64 4, ptr %11) #7
  call void @llvm.lifetime.end.p0(i64 4, ptr %10) #7
  call void @llvm.lifetime.end.p0(i64 4, ptr %9) #7
  ret void
}