; Function Attrs: nounwind uwtable
define void @lv_vector_path_append_circle(ptr noundef %0, ptr nocapture noundef readonly %1, float noundef %2, float noundef %3) local_unnamed_addr #3 {
  %5 = alloca %struct._lv_fpoint_t, align 4
  %6 = alloca %struct._lv_fpoint_t, align 4
  %7 = alloca %struct._lv_fpoint_t, align 4
  %8 = fmul float %2, 0x3FE1AC4F80000000
  %9 = fmul float %3, 0x3FE1AC4F80000000
  %10 = load float, ptr %1, align 4, !tbaa !3
  %11 = getelementptr inbounds nuw i8, ptr %1, i64 4
  %12 = load float, ptr %11, align 4, !tbaa !8
  call void @llvm.lifetime.start.p0(i64 8, ptr nonnull %5) #9
  call void @llvm.lifetime.start.p0(i64 8, ptr nonnull %6) #9
  call void @llvm.lifetime.start.p0(i64 8, ptr nonnull %7) #9
  store float %10, ptr %5, align 4, !tbaa !3
  %13 = fsub float %12, %3
  %14 = getelementptr inbounds nuw i8, ptr %5, i64 4
  store float %13, ptr %14, align 4, !tbaa !8
  call void @lv_vector_path_move_to(ptr noundef %0, ptr noundef nonnull %5)
  %15 = fadd float %8, %10
  store float %15, ptr %5, align 4, !tbaa !3
  store float %13, ptr %14, align 4, !tbaa !8
  %16 = fadd float %2, %10
  store float %16, ptr %6, align 4, !tbaa !3
  %17 = fsub float %12, %9
  %18 = getelementptr inbounds nuw i8, ptr %6, i64 4
  store float %17, ptr %18, align 4, !tbaa !8
  store float %16, ptr %7, align 4, !tbaa !3
  %19 = getelementptr inbounds nuw i8, ptr %7, i64 4
  store float %12, ptr %19, align 4, !tbaa !8
  call void @lv_vector_path_cubic_to(ptr noundef %0, ptr noundef nonnull %5, ptr noundef nonnull %6, ptr noundef nonnull %7)
  store float %16, ptr %5, align 4, !tbaa !3
  %20 = fadd float %9, %12
  store float %20, ptr %14, align 4, !tbaa !8
  store float %15, ptr %6, align 4, !tbaa !3
  %21 = fadd float %3, %12
  store float %21, ptr %18, align 4, !tbaa !8
  store float %10, ptr %7, align 4, !tbaa !3
  store float %21, ptr %19, align 4, !tbaa !8
  call void @lv_vector_path_cubic_to(ptr noundef %0, ptr noundef nonnull %5, ptr noundef nonnull %6, ptr noundef nonnull %7)
  %22 = fsub float %10, %8
  store float %22, ptr %5, align 4, !tbaa !3
  store float %21, ptr %14, align 4, !tbaa !8
  %23 = fsub float %10, %2
  store float %23, ptr %6, align 4, !tbaa !3
  store float %20, ptr %18, align 4, !tbaa !8
  store float %23, ptr %7, align 4, !tbaa !3
  store float %12, ptr %19, align 4, !tbaa !8
  call void @lv_vector_path_cubic_to(ptr noundef %0, ptr noundef nonnull %5, ptr noundef nonnull %6, ptr noundef nonnull %7)
  store float %23, ptr %5, align 4, !tbaa !3
  store float %17, ptr %14, align 4, !tbaa !8
  store float %22, ptr %6, align 4, !tbaa !3
  store float %13, ptr %18, align 4, !tbaa !8
  store float %10, ptr %7, align 4, !tbaa !3
  store float %13, ptr %19, align 4, !tbaa !8
  call void @lv_vector_path_cubic_to(ptr noundef %0, ptr noundef nonnull %5, ptr noundef nonnull %6, ptr noundef nonnull %7)
  call void @lv_vector_path_close(ptr noundef %0)
  call void @llvm.lifetime.end.p0(i64 8, ptr nonnull %7) #9
  call void @llvm.lifetime.end.p0(i64 8, ptr nonnull %6) #9
  call void @llvm.lifetime.end.p0(i64 8, ptr nonnull %5) #9
  ret void
}